target datalayout = "e-m:e-p270:32:32-p271:32:32-p272:64:64-i64:64-i128:128-f80:128-n8:16:32:64-S128"
target triple = "x86_64-pc-linux-gnu"

%"class.std::__cxx11::basic_string" = type { %"struct.std::__cxx11::basic_string<char>::_Alloc_hider", i64, %union.anon }
%"struct.std::__cxx11::basic_string<char>::_Alloc_hider" = type { ptr }
%union.anon = type { i64, [8 x i8] }
%"class.boost::unit_test::framework::state" = type { ptr, %"class.std::vector", i64, %"class.std::map", i64, i64, i8, %"class.std::set", %"class.std::vector.14", i32, %"class.std::set.19", %"class.boost::execution_monitor", %"class.std::map.25", %"class.boost::unit_test::runtime_config::stream_holder" }
%"class.std::vector" = type { %"struct.std::_Vector_base" }
%"struct.std::_Vector_base" = type { %"struct.std::_Vector_base<boost::unit_test::test_suite *, std::allocator<boost::unit_test::test_suite *>>::_Vector_impl" }
%"struct.std::_Vector_base<boost::unit_test::test_suite *, std::allocator<boost::unit_test::test_suite *>>::_Vector_impl" = type { %"struct.std::_Vector_base<boost::unit_test::test_suite *, std::allocator<boost::unit_test::test_suite *>>::_Vector_impl_data" }
%"struct.std::_Vector_base<boost::unit_test::test_suite *, std::allocator<boost::unit_test::test_suite *>>::_Vector_impl_data" = type { ptr, ptr, ptr }
%"class.std::map" = type { %"class.std::_Rb_tree" }
%"class.std::_Rb_tree" = type { %"struct.std::_Rb_tree<unsigned long, std::pair<const unsigned long, boost::unit_test::test_unit *>, std::_Select1st<std::pair<const unsigned long, boost::unit_test::test_unit *>>, std::less<unsigned long>>::_Rb_tree_impl" }
%"struct.std::_Rb_tree<unsigned long, std::pair<const unsigned long, boost::unit_test::test_unit *>, std::_Select1st<std::pair<const unsigned long, boost::unit_test::test_unit *>>, std::less<unsigned long>>::_Rb_tree_impl" = type { [8 x i8], %"struct.std::_Rb_tree_header" }
%"struct.std::_Rb_tree_header" = type { %"struct.std::_Rb_tree_node_base", i64 }
%"struct.std::_Rb_tree_node_base" = type { i32, ptr, ptr, ptr }
%"class.std::set" = type { %"class.std::_Rb_tree.9" }
%"class.std::_Rb_tree.9" = type { %"struct.std::_Rb_tree<boost::unit_test::test_observer *, boost::unit_test::test_observer *, std::_Identity<boost::unit_test::test_observer *>, boost::unit_test::framework::state::priority_order>::_Rb_tree_impl" }
%"struct.std::_Rb_tree<boost::unit_test::test_observer *, boost::unit_test::test_observer *, std::_Identity<boost::unit_test::test_observer *>, boost::unit_test::framework::state::priority_order>::_Rb_tree_impl" = type { [8 x i8], %"struct.std::_Rb_tree_header" }
%"class.std::vector.14" = type { %"struct.std::_Vector_base.15" }
%"struct.std::_Vector_base.15" = type { %"struct.std::_Vector_base<boost::unit_test::framework::state::context_frame, std::allocator<boost::unit_test::framework::state::context_frame>>::_Vector_impl" }
%"struct.std::_Vector_base<boost::unit_test::framework::state::context_frame, std::allocator<boost::unit_test::framework::state::context_frame>>::_Vector_impl" = type { %"struct.std::_Vector_base<boost::unit_test::framework::state::context_frame, std::allocator<boost::unit_test::framework::state::context_frame>>::_Vector_impl_data" }
%"struct.std::_Vector_base<boost::unit_test::framework::state::context_frame, std::allocator<boost::unit_test::framework::state::context_frame>>::_Vector_impl_data" = type { ptr, ptr, ptr }
%"class.std::set.19" = type { %"class.std::_Rb_tree.20" }
%"class.std::_Rb_tree.20" = type { %"struct.std::_Rb_tree<boost::unit_test::global_fixture *, boost::unit_test::global_fixture *, std::_Identity<boost::unit_test::global_fixture *>, std::less<boost::unit_test::global_fixture *>>::_Rb_tree_impl" }
%"struct.std::_Rb_tree<boost::unit_test::global_fixture *, boost::unit_test::global_fixture *, std::_Identity<boost::unit_test::global_fixture *>, std::less<boost::unit_test::global_fixture *>>::_Rb_tree_impl" = type { [8 x i8], %"struct.std::_Rb_tree_header" }
%"class.boost::execution_monitor" = type { %"class.boost::unit_test::readwrite_property", %"class.boost::unit_test::readwrite_property", %"class.boost::unit_test::readwrite_property.0", %"class.boost::unit_test::readwrite_property", %"class.boost::unit_test::readwrite_property.2", %"class.boost::shared_ptr", %"class.boost::scoped_array" }
%"class.boost::unit_test::readwrite_property.0" = type { %"class.boost::unit_test::class_property.1" }
%"class.boost::unit_test::class_property.1" = type { i64 }
%"class.boost::unit_test::readwrite_property" = type { %"class.boost::unit_test::class_property" }
%"class.boost::unit_test::class_property" = type { i8 }
%"class.boost::unit_test::readwrite_property.2" = type { %"class.boost::unit_test::class_property.3" }
%"class.boost::unit_test::class_property.3" = type { i32 }
%"class.boost::shared_ptr" = type { ptr, %"class.boost::detail::shared_count" }
%"class.boost::detail::shared_count" = type { ptr }
%"class.boost::scoped_array" = type { ptr }
%"class.std::map.25" = type { %"class.std::_Rb_tree.26" }
%"class.std::_Rb_tree.26" = type { %"struct.std::_Rb_tree<boost::unit_test::output_format, std::pair<const boost::unit_test::output_format, boost::unit_test::runtime_config::stream_holder>, std::_Select1st<std::pair<const boost::unit_test::output_format, boost::unit_test::runtime_config::stream_holder>>, std::less<boost::unit_test::output_format>>::_Rb_tree_impl" }
%"struct.std::_Rb_tree<boost::unit_test::output_format, std::pair<const boost::unit_test::output_format, boost::unit_test::runtime_config::stream_holder>, std::_Select1st<std::pair<const boost::unit_test::output_format, boost::unit_test::runtime_config::stream_holder>>, std::less<boost::unit_test::output_format>>::_Rb_tree_impl" = type { [8 x i8], %"struct.std::_Rb_tree_header" }
%"class.boost::unit_test::runtime_config::stream_holder" = type { %"class.boost::shared_ptr.31", ptr }
%"class.boost::shared_ptr.31" = type { ptr, %"class.boost::detail::shared_count" }
%"class.boost::unit_test::test_unit" = type { i32, %"class.boost::unit_test::basic_cstring", %"class.boost::unit_test::basic_cstring", i64, %"class.boost::unit_test::test_unit::readonly_property62", %"class.boost::unit_test::test_unit::readonly_property63", %"class.boost::unit_test::test_unit::readonly_property66", %"class.boost::unit_test::test_unit::readonly_property64", %"class.boost::unit_test::test_unit::readonly_property69", %"class.boost::unit_test::readwrite_property.53", %"class.boost::unit_test::readwrite_property.53", %"class.boost::unit_test::readwrite_property.2", %"class.boost::unit_test::readwrite_property.0", %"class.boost::unit_test::readwrite_property.58", %"class.boost::unit_test::readwrite_property.58", %"class.boost::unit_test::readwrite_property.0", %"class.boost::unit_test::readwrite_property.60", %"class.boost::unit_test::readwrite_property.67" }
%"class.boost::unit_test::basic_cstring" = type { ptr, ptr }
%"class.boost::unit_test::test_unit::readonly_property62" = type { %"class.boost::unit_test::readonly_property" }
%"class.boost::unit_test::readonly_property" = type { %"class.boost::unit_test::class_property.1" }
%"class.boost::unit_test::test_unit::readonly_property63" = type { %"class.boost::unit_test::readonly_property" }
%"class.boost::unit_test::test_unit::readonly_property66" = type { %"class.boost::unit_test::readonly_property.32" }
%"class.boost::unit_test::readonly_property.32" = type { %"class.boost::unit_test::class_property.33" }
%"class.boost::unit_test::class_property.33" = type { %"class.std::vector.34" }
%"class.std::vector.34" = type { %"struct.std::_Vector_base.35" }
%"struct.std::_Vector_base.35" = type { %"struct.std::_Vector_base<std::__cxx11::basic_string<char>, std::allocator<std::__cxx11::basic_string<char>>>::_Vector_impl" }
%"struct.std::_Vector_base<std::__cxx11::basic_string<char>, std::allocator<std::__cxx11::basic_string<char>>>::_Vector_impl" = type { %"struct.std::_Vector_base<std::__cxx11::basic_string<char>, std::allocator<std::__cxx11::basic_string<char>>>::_Vector_impl_data" }
%"struct.std::_Vector_base<std::__cxx11::basic_string<char>, std::allocator<std::__cxx11::basic_string<char>>>::_Vector_impl_data" = type { ptr, ptr, ptr }
%"class.boost::unit_test::test_unit::readonly_property64" = type { %"class.boost::unit_test::readonly_property.39" }
%"class.boost::unit_test::readonly_property.39" = type { %"class.boost::unit_test::class_property.40" }
%"class.boost::unit_test::class_property.40" = type { %"class.std::vector.41" }
%"class.std::vector.41" = type { %"struct.std::_Vector_base.42" }
%"struct.std::_Vector_base.42" = type { %"struct.std::_Vector_base<unsigned long, std::allocator<unsigned long>>::_Vector_impl" }
%"struct.std::_Vector_base<unsigned long, std::allocator<unsigned long>>::_Vector_impl" = type { %"struct.std::_Vector_base<unsigned long, std::allocator<unsigned long>>::_Vector_impl_data" }
%"struct.std::_Vector_base<unsigned long, std::allocator<unsigned long>>::_Vector_impl_data" = type { ptr, ptr, ptr }
%"class.boost::unit_test::test_unit::readonly_property69" = type { %"class.boost::unit_test::readonly_property.46" }
%"class.boost::unit_test::readonly_property.46" = type { %"class.boost::unit_test::class_property.47" }
%"class.boost::unit_test::class_property.47" = type { %"class.std::vector.48" }
%"class.std::vector.48" = type { %"struct.std::_Vector_base.49" }
%"struct.std::_Vector_base.49" = type { %"struct.std::_Vector_base<boost::function<boost::test_tools::assertion_result (unsigned long)>, std::allocator<boost::function<boost::test_tools::assertion_result (unsigned long)>>>::_Vector_impl" }
%"struct.std::_Vector_base<boost::function<boost::test_tools::assertion_result (unsigned long)>, std::allocator<boost::function<boost::test_tools::assertion_result (unsigned long)>>>::_Vector_impl" = type { %"struct.std::_Vector_base<boost::function<boost::test_tools::assertion_result (unsigned long)>, std::allocator<boost::function<boost::test_tools::assertion_result (unsigned long)>>>::_Vector_impl_data" }
%"struct.std::_Vector_base<boost::function<boost::test_tools::assertion_result (unsigned long)>, std::allocator<boost::function<boost::test_tools::assertion_result (unsigned long)>>>::_Vector_impl_data" = type { ptr, ptr, ptr }
%"class.boost::unit_test::readwrite_property.53" = type { %"class.boost::unit_test::class_property.54" }
%"class.boost::unit_test::class_property.54" = type { %"class.std::__cxx11::basic_string" }
%"class.boost::unit_test::readwrite_property.58" = type { %"class.boost::unit_test::class_property.59" }
%"class.boost::unit_test::class_property.59" = type { i32 }
%"class.boost::unit_test::readwrite_property.60" = type { %"class.boost::unit_test::class_property.61" }
%"class.boost::unit_test::class_property.61" = type { %"class.std::vector.62" }
%"class.std::vector.62" = type { %"struct.std::_Vector_base.63" }
%"struct.std::_Vector_base.63" = type { %"struct.std::_Vector_base<boost::shared_ptr<boost::unit_test::decorator::base>, std::allocator<boost::shared_ptr<boost::unit_test::decorator::base>>>::_Vector_impl" }
%"struct.std::_Vector_base<boost::shared_ptr<boost::unit_test::decorator::base>, std::allocator<boost::shared_ptr<boost::unit_test::decorator::base>>>::_Vector_impl" = type { %"struct.std::_Vector_base<boost::shared_ptr<boost::unit_test::decorator::base>, std::allocator<boost::shared_ptr<boost::unit_test::decorator::base>>>::_Vector_impl_data" }
%"struct.std::_Vector_base<boost::shared_ptr<boost::unit_test::decorator::base>, std::allocator<boost::shared_ptr<boost::unit_test::decorator::base>>>::_Vector_impl_data" = type { ptr, ptr, ptr }
%"class.boost::unit_test::readwrite_property.67" = type { %"class.boost::unit_test::class_property.68" }
%"class.boost::unit_test::class_property.68" = type { %"class.std::vector.69" }
%"class.std::vector.69" = type { %"struct.std::_Vector_base.70" }
%"struct.std::_Vector_base.70" = type { %"struct.std::_Vector_base<boost::shared_ptr<boost::unit_test::test_unit_fixture>, std::allocator<boost::shared_ptr<boost::unit_test::test_unit_fixture>>>::_Vector_impl" }
%"struct.std::_Vector_base<boost::shared_ptr<boost::unit_test::test_unit_fixture>, std::allocator<boost::shared_ptr<boost::unit_test::test_unit_fixture>>>::_Vector_impl" = type { %"struct.std::_Vector_base<boost::shared_ptr<boost::unit_test::test_unit_fixture>, std::allocator<boost::shared_ptr<boost::unit_test::test_unit_fixture>>>::_Vector_impl_data" }
%"struct.std::_Vector_base<boost::shared_ptr<boost::unit_test::test_unit_fixture>, std::allocator<boost::shared_ptr<boost::unit_test::test_unit_fixture>>>::_Vector_impl_data" = type { ptr, ptr, ptr }
%"class.std::exception" = type { ptr }
%"class.std::runtime_error" = type { %"class.std::exception", %"struct.std::__cow_string" }
%"struct.std::__cow_string" = type { %union.anon.104 }
%union.anon.104 = type { ptr }
%"struct.boost::unit_test::framework::internal_error" = type { %"class.std::runtime_error" }

@__dso_handle = external hidden global i8
@.str.35 = private unnamed_addr constant [23 x i8] c"Invalid test unit type\00", align 1
@_ZZN5boost9unit_test9framework4impl12_GLOBAL__N_111s_frk_stateEvE8the_inst = internal global %"class.boost::unit_test::framework::state" zeroinitializer, align 8
@_ZGVZN5boost9unit_test9framework4impl12_GLOBAL__N_111s_frk_stateEvE8the_inst = internal global i64 0, align 8
@_ZN5boost9unit_test13basic_cstringIKcE4nullE = linkonce_odr constant i8 0, comdat, align 1

; Function Attrs: mustprogress nounwind uwtable
define linkonce_odr hidden noundef zeroext i1 @_ZN5boost9unit_test9ut_detail20bcs_char_traits_implIKcE2eqEcc(i8 noundef signext %0, i8 noundef signext %1) #4 comdat align 2 {
  %3 = alloca i8, align 1
  %4 = alloca i8, align 1
  store i8 %0, ptr %3, align 1, !tbaa !7
  store i8 %1, ptr %4, align 1, !tbaa !7
  %5 = load i8, ptr %3, align 1, !tbaa !7
  %6 = sext i8 %5 to i32
  %7 = load i8, ptr %4, align 1, !tbaa !7
  %8 = sext i8 %7 to i32
  %9 = icmp eq i32 %6, %8
  ret i1 %9
}

; Function Attrs: mustprogress nounwind uwtable
define linkonce_odr hidden noundef i64 @_ZN5boost9unit_test9ut_detail20bcs_char_traits_implIKcE6lengthEPS3_(ptr noundef %0) #4 comdat align 2 {
  %2 = alloca ptr, align 8
  %3 = alloca i8, align 1
  %4 = alloca ptr, align 8
  store ptr %0, ptr %2, align 8, !tbaa !3
  call void @llvm.lifetime.start.p0(i64 1, ptr %3) #3
  store i8 0, ptr %3, align 1, !tbaa !7
  call void @llvm.lifetime.start.p0(i64 8, ptr %4) #3
  %5 = load ptr, ptr %2, align 8, !tbaa !3
  store ptr %5, ptr %4, align 8, !tbaa !3
  br label %6

6:                                                ; preds = %11, %1
  %7 = load ptr, ptr %4, align 8, !tbaa !3
  %8 = load i8, ptr %7, align 1, !tbaa !7
  %9 = call noundef zeroext i1 @_ZN5boost9unit_test9ut_detail20bcs_char_traits_implIKcE2eqEcc(i8 noundef signext %8, i8 noundef signext 0)
  %10 = xor i1 %9, true
  br i1 %10, label %11, label %14

11:                                               ; preds = %6
  %12 = load ptr, ptr %4, align 8, !tbaa !3
  %13 = getelementptr inbounds nuw i8, ptr %12, i32 1
  store ptr %13, ptr %4, align 8, !tbaa !3
  br label %6, !llvm.loop !528

14:                                               ; preds = %6
  %15 = load ptr, ptr %4, align 8, !tbaa !3
  %16 = load ptr, ptr %2, align 8, !tbaa !3
  %17 = ptrtoint ptr %15 to i64
  %18 = ptrtoint ptr %16 to i64
  %19 = sub i64 %17, %18
  call void @llvm.lifetime.end.p0(i64 8, ptr %4) #3
  call void @llvm.lifetime.end.p0(i64 1, ptr %3) #3
  ret i64 %19
}

; Function Attrs: inlinehint mustprogress nounwind uwtable
define linkonce_odr hidden noundef ptr @_ZN5boost9unit_test13basic_cstringIKcE8null_strEv() #9 comdat align 2 {
  ret ptr @_ZN5boost9unit_test13basic_cstringIKcE4nullE
}

; Function Attrs: inlinehint mustprogress uwtable
define linkonce_odr hidden void @_ZN5boost9unit_test13basic_cstringIKcEC2EPS2_(ptr noundef nonnull align 8 dereferenceable(16) %0, ptr noundef %1) unnamed_addr #7 comdat align 2 {
  %3 = alloca ptr, align 8
  %4 = alloca ptr, align 8
  store ptr %0, ptr %3, align 8, !tbaa !3
  store ptr %1, ptr %4, align 8, !tbaa !3
  %5 = load ptr, ptr %3, align 8
  %6 = getelementptr inbounds nuw %"class.boost::unit_test::basic_cstring", ptr %5, i32 0, i32 0
  %7 = load ptr, ptr %4, align 8, !tbaa !3
  %8 = icmp ne ptr %7, null
  br i1 %8, label %9, label %11

9:                                                ; preds = %2
  %10 = load ptr, ptr %4, align 8, !tbaa !3
  br label %13

11:                                               ; preds = %2
  %12 = call noundef ptr @_ZN5boost9unit_test13basic_cstringIKcE8null_strEv()
  br label %13

13:                                               ; preds = %11, %9
  %14 = phi ptr [ %10, %9 ], [ %12, %11 ]
  store ptr %14, ptr %6, align 8, !tbaa !26
  %15 = getelementptr inbounds nuw %"class.boost::unit_test::basic_cstring", ptr %5, i32 0, i32 1
  %16 = getelementptr inbounds nuw %"class.boost::unit_test::basic_cstring", ptr %5, i32 0, i32 0
  %17 = load ptr, ptr %16, align 8, !tbaa !26
  %18 = load ptr, ptr %4, align 8, !tbaa !3
  %19 = icmp ne ptr %18, null
  br i1 %19, label %20, label %23

20:                                               ; preds = %13
  %21 = load ptr, ptr %4, align 8, !tbaa !3
  %22 = call noundef i64 @_ZN5boost9unit_test9ut_detail20bcs_char_traits_implIKcE6lengthEPS3_(ptr noundef %21)
  br label %24

23:                                               ; preds = %13
  br label %24

24:                                               ; preds = %23, %20
  %25 = phi i64 [ %22, %20 ], [ 0, %23 ]
  %26 = getelementptr inbounds nuw i8, ptr %17, i64 %25
  store ptr %26, ptr %15, align 8, !tbaa !28
  ret void
}

; Function Attrs: mustprogress uwtable
define internal noundef nonnull align 8 dereferenceable(360) ptr @_ZN5boost9unit_test9framework4impl12_GLOBAL__N_111s_frk_stateEv() #5 personality ptr @__gxx_personality_v0 {
  %1 = alloca ptr, align 8
  %2 = alloca i32, align 4
  %3 = load atomic i8, ptr @_ZGVZN5boost9unit_test9framework4impl12_GLOBAL__N_111s_frk_stateEvE8the_inst acquire, align 8
  %4 = icmp eq i8 %3, 0
  br i1 %4, label %5, label %11, !prof !14

5:                                                ; preds = %0
  %6 = call i32 @__cxa_guard_acquire(ptr @_ZGVZN5boost9unit_test9framework4impl12_GLOBAL__N_111s_frk_stateEvE8the_inst) #3
  %7 = icmp ne i32 %6, 0
  br i1 %7, label %8, label %11

8:                                                ; preds = %5
  invoke void @_ZN5boost9unit_test9framework5stateC2Ev(ptr noundef nonnull align 8 dereferenceable(360) @_ZZN5boost9unit_test9framework4impl12_GLOBAL__N_111s_frk_stateEvE8the_inst)
          to label %9 unwind label %12

9:                                                ; preds = %8
  %10 = call i32 @__cxa_atexit(ptr @_ZN5boost9unit_test9framework5stateD2Ev, ptr @_ZZN5boost9unit_test9framework4impl12_GLOBAL__N_111s_frk_stateEvE8the_inst, ptr @__dso_handle) #3
  call void @__cxa_guard_release(ptr @_ZGVZN5boost9unit_test9framework4impl12_GLOBAL__N_111s_frk_stateEvE8the_inst) #3
  br label %11

11:                                               ; preds = %9, %5, %0
  ret ptr @_ZZN5boost9unit_test9framework4impl12_GLOBAL__N_111s_frk_stateEvE8the_inst

12:                                               ; preds = %8
  %13 = landingpad { ptr, i32 }
          cleanup
  %14 = extractvalue { ptr, i32 } %13, 0
  store ptr %14, ptr %1, align 8
  %15 = extractvalue { ptr, i32 } %13, 1
  store i32 %15, ptr %2, align 4
  call void @__cxa_guard_abort(ptr @_ZGVZN5boost9unit_test9framework4impl12_GLOBAL__N_111s_frk_stateEvE8the_inst) #3
  br label %16

16:                                               ; preds = %12
  %17 = load ptr, ptr %1, align 8
  %18 = load i32, ptr %2, align 4
  %19 = insertvalue { ptr, i32 } poison, ptr %17, 0
  %20 = insertvalue { ptr, i32 } %19, i32 %18, 1
  resume { ptr, i32 } %20
}

; Function Attrs: mustprogress uwtable
define noundef nonnull align 8 dereferenceable(280) ptr @_ZN5boost9unit_test9framework3getEmNS0_14test_unit_typeE(i64 noundef %0, i32 noundef %1) #5 personality ptr @__gxx_personality_v0 {
  %3 = alloca i64, align 8
  %4 = alloca i32, align 4
  %5 = alloca ptr, align 8
  %6 = alloca %"struct.boost::unit_test::framework::internal_error", align 8
  %7 = alloca %"class.boost::unit_test::basic_cstring", align 8
  %8 = alloca ptr, align 8
  %9 = alloca i32, align 4
  store i64 %0, ptr %3, align 8, !tbaa !12
  store i32 %1, ptr %4, align 4, !tbaa !205
  call void @llvm.lifetime.start.p0(i64 8, ptr %5) #3
  %10 = call noundef nonnull align 8 dereferenceable(360) ptr @_ZN5boost9unit_test9framework4impl12_GLOBAL__N_111s_frk_stateEv()
  %11 = getelementptr inbounds nuw %"class.boost::unit_test::framework::state", ptr %10, i32 0, i32 3
  %12 = call noundef nonnull align 8 dereferenceable(8) ptr @_ZNSt3mapImPN5boost9unit_test9test_unitESt4lessImESaISt4pairIKmS3_EEEixERS7_(ptr noundef nonnull align 8 dereferenceable(48) %11, ptr noundef nonnull align 8 dereferenceable(8) %3)
  %13 = load ptr, ptr %12, align 8, !tbaa !3
  store ptr %13, ptr %5, align 8, !tbaa !3
  %14 = load ptr, ptr %5, align 8, !tbaa !3
  %15 = getelementptr inbounds nuw %"class.boost::unit_test::test_unit", ptr %14, i32 0, i32 0
  %16 = load i32, ptr %15, align 8, !tbaa !170
  %17 = load i32, ptr %4, align 4, !tbaa !205
  %18 = and i32 %16, %17
  %19 = icmp ne i32 %18, 0
  br i1 %19, label %20, label %21

20:                                               ; preds = %2
  br label %27

21:                                               ; preds = %2
  call void @llvm.lifetime.start.p0(i64 16, ptr %6) #3
  call void @_ZN5boost9unit_test13basic_cstringIKcEC2EPS2_(ptr noundef nonnull align 8 dereferenceable(16) %7, ptr noundef @.str.35)
  call void @_ZN5boost9unit_test9framework14internal_errorC2ENS0_13basic_cstringIKcEE(ptr noundef nonnull align 8 dereferenceable(16) %6, ptr noundef %7)
  invoke void @_ZN5boost9unit_test9ut_detail15throw_exceptionINS0_9framework14internal_errorEEEvRKT_(ptr noundef nonnull align 8 dereferenceable(16) %6) #25
          to label %22 unwind label %23

22:                                               ; preds = %21
  unreachable

23:                                               ; preds = %21
  %24 = landingpad { ptr, i32 }
          cleanup
  %25 = extractvalue { ptr, i32 } %24, 0
  store ptr %25, ptr %8, align 8
  %26 = extractvalue { ptr, i32 } %24, 1
  store i32 %26, ptr %9, align 4
  call void @_ZNSt13runtime_errorD2Ev(ptr noundef nonnull align 8 dereferenceable(16) %6) #3
  call void @llvm.lifetime.end.p0(i64 16, ptr %6) #3
  call void @llvm.lifetime.end.p0(i64 8, ptr %5) #3
  br label %29

27:                                               ; preds = %20
  %28 = load ptr, ptr %5, align 8, !tbaa !3
  call void @llvm.lifetime.end.p0(i64 8, ptr %5) #3
  ret ptr %28

29:                                               ; preds = %23
  %30 = load ptr, ptr %8, align 8
  %31 = load i32, ptr %9, align 4
  %32 = insertvalue { ptr, i32 } poison, ptr %30, 0
  %33 = insertvalue { ptr, i32 } %32, i32 %31, 1
  resume { ptr, i32 } %33
}