; Function Attrs: mustprogress uwtable
define noundef nonnull align 8 dereferenceable(280) ptr @_ZN5boost9unit_test9framework3getEmNS0_14test_unit_typeE(i64 noundef %0, i32 noundef %1) local_unnamed_addr #3 personality ptr @__gxx_personality_v0 {
  %3 = alloca i64, align 8
  %4 = alloca %"struct.boost::unit_test::framework::internal_error", align 8
  %5 = alloca %"class.boost::unit_test::basic_cstring", align 8
  store i64 %0, ptr %3, align 8, !tbaa !4
  %6 = load atomic i8, ptr @_ZGVZN5boost9unit_test9framework4impl12_GLOBAL__N_111s_frk_stateEvE8the_inst acquire, align 8
  %7 = icmp eq i8 %6, 0
  br i1 %7, label %8, label %_ZN5boost9unit_test9framework4impl12_GLOBAL__N_111s_frk_stateEv.exit, !prof !3

8:                                                ; preds = %2
  %9 = tail call i32 @__cxa_guard_acquire(ptr nonnull @_ZGVZN5boost9unit_test9framework4impl12_GLOBAL__N_111s_frk_stateEvE8the_inst) #26
  %.not.i = icmp eq i32 %9, 0
  br i1 %.not.i, label %_ZN5boost9unit_test9framework4impl12_GLOBAL__N_111s_frk_stateEv.exit, label %10

10:                                               ; preds = %8
  invoke void @_ZN5boost9unit_test9framework5stateC2Ev(ptr noundef nonnull align 8 dereferenceable(360) @_ZZN5boost9unit_test9framework4impl12_GLOBAL__N_111s_frk_stateEvE8the_inst)
          to label %11 unwind label %13

11:                                               ; preds = %10
  %12 = tail call i32 @__cxa_atexit(ptr nonnull @_ZN5boost9unit_test9framework5stateD2Ev, ptr nonnull @_ZZN5boost9unit_test9framework4impl12_GLOBAL__N_111s_frk_stateEvE8the_inst, ptr nonnull @__dso_handle) #26
  tail call void @__cxa_guard_release(ptr nonnull @_ZGVZN5boost9unit_test9framework4impl12_GLOBAL__N_111s_frk_stateEvE8the_inst) #26
  br label %_ZN5boost9unit_test9framework4impl12_GLOBAL__N_111s_frk_stateEv.exit

common.resume:                                    ; preds = %21, %13
  %common.resume.op = phi { ptr, i32 } [ %14, %13 ], [ %22, %21 ]
  resume { ptr, i32 } %common.resume.op

13:                                               ; preds = %10
  %14 = landingpad { ptr, i32 }
          cleanup
  tail call void @__cxa_guard_abort(ptr nonnull @_ZGVZN5boost9unit_test9framework4impl12_GLOBAL__N_111s_frk_stateEvE8the_inst) #26
  br label %common.resume

_ZN5boost9unit_test9framework4impl12_GLOBAL__N_111s_frk_stateEv.exit: ; preds = %2, %8, %11
  %15 = call noundef nonnull align 8 dereferenceable(8) ptr @_ZNSt3mapImPN5boost9unit_test9test_unitESt4lessImESaISt4pairIKmS3_EEEixERS7_(ptr noundef nonnull align 8 dereferenceable(48) getelementptr inbounds nuw (i8, ptr @_ZZN5boost9unit_test9framework4impl12_GLOBAL__N_111s_frk_stateEvE8the_inst, i64 40), ptr noundef nonnull align 8 dereferenceable(8) %3)
  %16 = load ptr, ptr %15, align 8, !tbaa !16
  %17 = load i32, ptr %16, align 8, !tbaa !71
  %18 = and i32 %17, %1
  %.not = icmp eq i32 %18, 0
  br i1 %.not, label %_ZN5boost9unit_test13basic_cstringIKcEC2EPS2_.exit, label %23

_ZN5boost9unit_test13basic_cstringIKcEC2EPS2_.exit: ; preds = %_ZN5boost9unit_test9framework4impl12_GLOBAL__N_111s_frk_stateEv.exit
  call void @llvm.lifetime.start.p0(i64 16, ptr nonnull %4) #26
  store ptr @.str.35, ptr %5, align 8, !tbaa !13
  %19 = getelementptr inbounds nuw i8, ptr %5, i64 8
  store ptr getelementptr inbounds nuw (i8, ptr @.str.35, i64 22), ptr %19, align 8, !tbaa !15
  call void @_ZN5boost9unit_test9framework14internal_errorC2ENS0_13basic_cstringIKcEE(ptr noundef nonnull align 8 dereferenceable(16) %4, ptr noundef nonnull %5)
  invoke void @_ZN5boost9unit_test9ut_detail15throw_exceptionINS0_9framework14internal_errorEEEvRKT_(ptr noundef nonnull align 8 dereferenceable(16) %4) #27
          to label %20 unwind label %21

20:                                               ; preds = %_ZN5boost9unit_test13basic_cstringIKcEC2EPS2_.exit
  unreachable

21:                                               ; preds = %_ZN5boost9unit_test13basic_cstringIKcEC2EPS2_.exit
  %22 = landingpad { ptr, i32 }
          cleanup
  call void @_ZNSt13runtime_errorD2Ev(ptr noundef nonnull align 8 dereferenceable(16) %4) #26
  call void @llvm.lifetime.end.p0(i64 16, ptr nonnull %4) #26
  br label %common.resume

23:                                               ; preds = %_ZN5boost9unit_test9framework4impl12_GLOBAL__N_111s_frk_stateEv.exit
  ret ptr %16
}